target datalayout = "e-m:e-p270:32:32-p271:32:32-p272:64:64-i64:64-i128:128-f80:128-n8:16:32:64-S128"
target triple = "x86_64-pc-linux-gnu"

@proto_register_mc_nmf.ett = internal global [2 x ptr] [ptr @ett_mc_nmf, ptr @ett_mc_nmf_rec], align 16
@.str.41 = private unnamed_addr constant [30 x i8] c".NET Message Framing Protocol\00", align 1
@.str.42 = private unnamed_addr constant [7 x i8] c"MC-NMF\00", align 1
@.str.43 = private unnamed_addr constant [7 x i8] c"mc-nmf\00", align 1
@proto_mc_nmf = internal global i32 0, align 4
@mc_nmf_handle = internal global ptr null, align 8

; Function Attrs: null_pointer_is_valid sspstrong uwtable
define hidden void @proto_register_mc_nmf() #0 {
  %1 = alloca ptr, align 8
  call void @llvm.lifetime.start.p0(i64 8, ptr %1) #5
  %2 = call i32 @proto_register_protocol(ptr noundef @.str.41, ptr noundef @.str.42, ptr noundef @.str.43)
  store i32 %2, ptr @proto_mc_nmf, align 4
  %3 = load i32, ptr @proto_mc_nmf, align 4
  call void @proto_register_field_array(i32 noundef %3, ptr noundef @proto_register_mc_nmf.hf, i32 noundef 19)
  call void @proto_register_subtree_array(ptr noundef @proto_register_mc_nmf.ett, i32 noundef 2)
  %4 = load i32, ptr @proto_mc_nmf, align 4
  %5 = call ptr @expert_register_protocol(i32 noundef %4)
  store ptr %5, ptr %1, align 8
  %6 = load ptr, ptr %1, align 8
  call void @expert_register_field_array(ptr noundef %6, ptr noundef @proto_register_mc_nmf.ei, i32 noundef 1)
  %7 = load i32, ptr @proto_mc_nmf, align 4
  %8 = call ptr @register_dissector(ptr noundef @.str.43, ptr noundef @dissect_mc_nmf, i32 noundef %7)
  store ptr %8, ptr @mc_nmf_handle, align 8
  call void @llvm.lifetime.end.p0(i64 8, ptr %1) #5
  ret void
}